target datalayout = "e-m:e-p270:32:32-p271:32:32-p272:64:64-i64:64-i128:128-f80:128-n8:16:32:64-S128"
target triple = "x86_64-pc-linux-gnu"

%struct.ggml_gallocr = type { ptr, ptr, ptr, i32, %struct.ggml_hash_set, ptr, ptr, i32, ptr, i32 }
%struct.ggml_hash_set = type { i64, ptr, ptr }
%struct.hash_node = type { i32, i32, i32, i64, i8 }

@.str.19 = private unnamed_addr constant [118 x i8] c"generated/home/dtcxzyw/WorkSpace/Projects/compilers/llvm-opt-benchmark/bench/llama.cpp/llama.cpp/ggml/src/ggml-impl.h\00", align 1
@.str.20 = private unnamed_addr constant [12 x i8] c"fatal error\00", align 1

; Function Attrs: inlinehint nounwind uwtable
define internal void @ggml_bitset_set(ptr noundef %0, i64 noundef %1) #9 {
  %3 = alloca ptr, align 8
  %4 = alloca i64, align 8
  store ptr %0, ptr %3, align 8, !tbaa !63
  store i64 %1, ptr %4, align 8, !tbaa !9
  %5 = load i64, ptr %4, align 8, !tbaa !9
  %6 = and i64 %5, 31
  %7 = trunc i64 %6 to i32
  %8 = shl i32 1, %7
  %9 = load ptr, ptr %3, align 8, !tbaa !63
  %10 = load i64, ptr %4, align 8, !tbaa !9
  %11 = lshr i64 %10, 5
  %12 = getelementptr inbounds nuw i32, ptr %9, i64 %11
  %13 = load i32, ptr %12, align 4, !tbaa !23
  %14 = or i32 %13, %8
  store i32 %14, ptr %12, align 4, !tbaa !23
  ret void
}

; Function Attrs: inlinehint nounwind uwtable
define internal zeroext i1 @ggml_bitset_get(ptr noundef %0, i64 noundef %1) #9 {
  %3 = alloca ptr, align 8
  %4 = alloca i64, align 8
  store ptr %0, ptr %3, align 8, !tbaa !63
  store i64 %1, ptr %4, align 8, !tbaa !9
  %5 = load ptr, ptr %3, align 8, !tbaa !63
  %6 = load i64, ptr %4, align 8, !tbaa !9
  %7 = lshr i64 %6, 5
  %8 = getelementptr inbounds nuw i32, ptr %5, i64 %7
  %9 = load i32, ptr %8, align 4, !tbaa !23
  %10 = load i64, ptr %4, align 8, !tbaa !9
  %11 = and i64 %10, 31
  %12 = trunc i64 %11 to i32
  %13 = shl i32 1, %12
  %14 = and i32 %9, %13
  %15 = icmp ne i32 %14, 0
  %16 = xor i1 %15, true
  %17 = xor i1 %16, true
  ret i1 %17
}

; Function Attrs: inlinehint nounwind uwtable
define internal i64 @ggml_hash(ptr noundef %0) #9 {
  %2 = alloca ptr, align 8
  store ptr %0, ptr %2, align 8, !tbaa !18
  %3 = load ptr, ptr %2, align 8, !tbaa !18
  %4 = ptrtoint ptr %3 to i64
  %5 = lshr i64 %4, 4
  ret i64 %5
}

; Function Attrs: nounwind uwtable
define internal i64 @ggml_hash_find_or_insert(ptr noundef %0, ptr noundef %1) #0 {
  %3 = alloca i64, align 8
  %4 = alloca ptr, align 8
  %5 = alloca ptr, align 8
  %6 = alloca i64, align 8
  %7 = alloca i64, align 8
  %8 = alloca i32, align 4
  store ptr %0, ptr %4, align 8, !tbaa !155
  store ptr %1, ptr %5, align 8, !tbaa !18
  call void @llvm.lifetime.start.p0(i64 8, ptr %6) #11
  %9 = load ptr, ptr %5, align 8, !tbaa !18
  %10 = call i64 @ggml_hash(ptr noundef %9)
  %11 = load ptr, ptr %4, align 8, !tbaa !155
  %12 = getelementptr inbounds nuw %struct.ggml_hash_set, ptr %11, i32 0, i32 0
  %13 = load i64, ptr %12, align 8, !tbaa !157
  %14 = urem i64 %10, %13
  store i64 %14, ptr %6, align 8, !tbaa !9
  call void @llvm.lifetime.start.p0(i64 8, ptr %7) #11
  %15 = load i64, ptr %6, align 8, !tbaa !9
  store i64 %15, ptr %7, align 8, !tbaa !9
  br label %16

16:                                               ; preds = %52, %2
  %17 = load ptr, ptr %4, align 8, !tbaa !155
  %18 = getelementptr inbounds nuw %struct.ggml_hash_set, ptr %17, i32 0, i32 1
  %19 = load ptr, ptr %18, align 8, !tbaa !158
  %20 = load i64, ptr %7, align 8, !tbaa !9
  %21 = call zeroext i1 @ggml_bitset_get(ptr noundef %19, i64 noundef %20)
  br i1 %21, label %34, label %22

22:                                               ; preds = %16
  %23 = load ptr, ptr %4, align 8, !tbaa !155
  %24 = getelementptr inbounds nuw %struct.ggml_hash_set, ptr %23, i32 0, i32 1
  %25 = load ptr, ptr %24, align 8, !tbaa !158
  %26 = load i64, ptr %7, align 8, !tbaa !9
  call void @ggml_bitset_set(ptr noundef %25, i64 noundef %26)
  %27 = load ptr, ptr %5, align 8, !tbaa !18
  %28 = load ptr, ptr %4, align 8, !tbaa !155
  %29 = getelementptr inbounds nuw %struct.ggml_hash_set, ptr %28, i32 0, i32 2
  %30 = load ptr, ptr %29, align 8, !tbaa !159
  %31 = load i64, ptr %7, align 8, !tbaa !9
  %32 = getelementptr inbounds nuw ptr, ptr %30, i64 %31
  store ptr %27, ptr %32, align 8, !tbaa !18
  %33 = load i64, ptr %7, align 8, !tbaa !9
  store i64 %33, ptr %3, align 8
  store i32 1, ptr %8, align 4
  br label %57

34:                                               ; preds = %16
  %35 = load ptr, ptr %4, align 8, !tbaa !155
  %36 = getelementptr inbounds nuw %struct.ggml_hash_set, ptr %35, i32 0, i32 2
  %37 = load ptr, ptr %36, align 8, !tbaa !159
  %38 = load i64, ptr %7, align 8, !tbaa !9
  %39 = getelementptr inbounds nuw ptr, ptr %37, i64 %38
  %40 = load ptr, ptr %39, align 8, !tbaa !18
  %41 = load ptr, ptr %5, align 8, !tbaa !18
  %42 = icmp eq ptr %40, %41
  br i1 %42, label %43, label %45

43:                                               ; preds = %34
  %44 = load i64, ptr %7, align 8, !tbaa !9
  store i64 %44, ptr %3, align 8
  store i32 1, ptr %8, align 4
  br label %57

45:                                               ; preds = %34
  %46 = load i64, ptr %7, align 8, !tbaa !9
  %47 = add i64 %46, 1
  %48 = load ptr, ptr %4, align 8, !tbaa !155
  %49 = getelementptr inbounds nuw %struct.ggml_hash_set, ptr %48, i32 0, i32 0
  %50 = load i64, ptr %49, align 8, !tbaa !157
  %51 = urem i64 %47, %50
  store i64 %51, ptr %7, align 8, !tbaa !9
  br label %52

52:                                               ; preds = %45
  %53 = load i64, ptr %7, align 8, !tbaa !9
  %54 = load i64, ptr %6, align 8, !tbaa !9
  %55 = icmp ne i64 %53, %54
  br i1 %55, label %16, label %56, !llvm.loop !160

56:                                               ; preds = %52
  call void (ptr, i32, ptr, ...) @ggml_abort(ptr noundef @.str.19, i32 noundef 276, ptr noundef @.str.20) #12
  unreachable

57:                                               ; preds = %43, %22
  call void @llvm.lifetime.end.p0(i64 8, ptr %7) #11
  call void @llvm.lifetime.end.p0(i64 8, ptr %6) #11
  %58 = load i64, ptr %3, align 8
  ret i64 %58
}

; Function Attrs: nounwind uwtable
define internal ptr @ggml_gallocr_hash_get(ptr noundef %0, ptr noundef %1) #0 {
  %3 = alloca ptr, align 8
  %4 = alloca ptr, align 8
  %5 = alloca i64, align 8
  store ptr %0, ptr %3, align 8, !tbaa !25
  store ptr %1, ptr %4, align 8, !tbaa !18
  call void @llvm.lifetime.start.p0(i64 8, ptr %5) #11
  %6 = load ptr, ptr %3, align 8, !tbaa !25
  %7 = getelementptr inbounds nuw %struct.ggml_gallocr, ptr %6, i32 0, i32 4
  %8 = load ptr, ptr %4, align 8, !tbaa !18
  %9 = call i64 @ggml_hash_find_or_insert(ptr noundef %7, ptr noundef %8)
  store i64 %9, ptr %5, align 8, !tbaa !9
  %10 = load ptr, ptr %3, align 8, !tbaa !25
  %11 = getelementptr inbounds nuw %struct.ggml_gallocr, ptr %10, i32 0, i32 5
  %12 = load ptr, ptr %11, align 8, !tbaa !58
  %13 = load i64, ptr %5, align 8, !tbaa !9
  %14 = getelementptr inbounds nuw %struct.hash_node, ptr %12, i64 %13
  call void @llvm.lifetime.end.p0(i64 8, ptr %5) #11
  ret ptr %14
}