; Function Attrs: nounwind uwtable
define internal fastcc ptr @ggml_gallocr_hash_get(ptr noundef readonly captures(none) %0, ptr noundef %1) unnamed_addr #0 {
  %3 = getelementptr inbounds nuw i8, ptr %0, i64 32
  %4 = ptrtoint ptr %1 to i64
  %5 = lshr i64 %4, 4
  %6 = load i64, ptr %3, align 8, !tbaa !66
  %7 = urem i64 %5, %6
  %8 = getelementptr inbounds nuw i8, ptr %0, i64 40
  %9 = load ptr, ptr %8, align 8, !tbaa !67
  %10 = getelementptr inbounds nuw i8, ptr %0, i64 48
  br label %11

11:                                               ; preds = %29, %2
  %.0.i = phi i64 [ %7, %2 ], [ %32, %29 ]
  %.0.fr.i = freeze i64 %.0.i
  %12 = lshr i64 %.0.fr.i, 5
  %13 = getelementptr inbounds nuw i32, ptr %9, i64 %12
  %14 = load i32, ptr %13, align 4, !tbaa !61
  %15 = trunc i64 %.0.fr.i to i32
  %16 = and i32 %15, 31
  %17 = shl nuw i32 1, %16
  %18 = and i32 %17, %14
  %.not21.i = icmp eq i32 %18, 0
  br i1 %.not21.i, label %19, label %24

19:                                               ; preds = %11
  %20 = getelementptr inbounds nuw i32, ptr %9, i64 %12
  %21 = or i32 %17, %14
  store i32 %21, ptr %20, align 4, !tbaa !61
  %22 = load ptr, ptr %10, align 8, !tbaa !68
  %23 = getelementptr inbounds nuw ptr, ptr %22, i64 %.0.fr.i
  store ptr %1, ptr %23, align 8, !tbaa !58
  br label %ggml_hash_find_or_insert.exit

24:                                               ; preds = %11
  %25 = load ptr, ptr %10, align 8, !tbaa !68
  %26 = getelementptr inbounds nuw ptr, ptr %25, i64 %.0.fr.i
  %27 = load ptr, ptr %26, align 8, !tbaa !58
  %28 = icmp eq ptr %27, %1
  br i1 %28, label %ggml_hash_find_or_insert.exit, label %29

29:                                               ; preds = %24
  %30 = add i64 %.0.fr.i, 1
  %31 = icmp eq i64 %30, %6
  %32 = select i1 %31, i64 0, i64 %30
  %.not.i = icmp eq i64 %32, %7
  br i1 %.not.i, label %33, label %11, !llvm.loop !69

33:                                               ; preds = %29
  tail call void (ptr, i32, ptr, ...) @ggml_abort(ptr noundef nonnull @.str.19, i32 noundef 276, ptr noundef nonnull @.str.20) #13
  unreachable

ggml_hash_find_or_insert.exit:                    ; preds = %24, %19
  %34 = getelementptr inbounds nuw i8, ptr %0, i64 56
  %35 = load ptr, ptr %34, align 8, !tbaa !43
  %36 = getelementptr inbounds nuw %struct.hash_node, ptr %35, i64 %.0.fr.i
  ret ptr %36
}